; Function Attrs: mustprogress nounwind uwtable
define hidden void @_ZN3mbp20array_project_pluginD0Ev(ptr noundef nonnull align 8 dereferenceable(152) %this) unnamed_addr #4 align 2 personality ptr @__gxx_personality_v0 {
entry:
  store ptr getelementptr inbounds ({ [10 x ptr] }, ptr @_ZTVN3mbp20array_project_pluginE, i64 0, i32 0, i64 2), ptr %this, align 8
  %m_imp.i = getelementptr inbounds i8, ptr %this, i64 144
  %0 = load ptr, ptr %m_imp.i, align 8
  %cmp.i.i = icmp eq ptr %0, null
  br i1 %cmp.i.i, label %_ZN3mbp20array_project_pluginD2Ev.exit, label %if.end.i.i

if.end.i.i:                                       ; preds = %entry
  tail call void @_ZN3mbp20array_project_plugin3impD2Ev(ptr noundef nonnull align 8 dereferenceable(96) %0) #20
  invoke void @_ZN6memory10deallocateEPv(ptr noundef nonnull %0)
          to label %_ZN3mbp20array_project_pluginD2Ev.exit unwind label %terminate.lpad.i

terminate.lpad.i:                                 ; preds = %if.end.i.i
  %1 = landingpad { ptr, i32 }
          catch ptr null
  %2 = extractvalue { ptr, i32 } %1, 0
  tail call void @__clang_call_terminate(ptr %2) #21
  unreachable

_ZN3mbp20array_project_pluginD2Ev.exit:           ; preds = %entry, %if.end.i.i
  tail call void @_ZN3mbp14project_pluginD2Ev(ptr noundef nonnull align 8 dereferenceable(144) %this) #20
  tail call void @_ZdlPv(ptr noundef nonnull %this) #22
  ret void
}